target datalayout = "e-m:e-p270:32:32-p271:32:32-p272:64:64-i64:64-f80:128-n8:16:32:64-S128"
target triple = "x86_64-pc-linux-gnu"

@.str = private unnamed_addr constant [6 x i8] c"%d %d\00", align 1
@.str.1 = private unnamed_addr constant [3 x i8] c"%d\00", align 1
@.str.2 = private unnamed_addr constant [4 x i8] c"%d\0A\00", align 1

; Function Attrs: noinline nounwind uwtable
define dso_local void @mk() #0 {
  %1 = alloca i32, align 4
  %2 = alloca i32, align 4
  %3 = alloca i32, align 4
  %4 = alloca i32, align 4
  %5 = alloca i32, align 4
  %6 = alloca i32, align 4
  %7 = alloca [100 x [100 x i32]], align 16
  store i32 0, i32* %6, align 4
  %8 = call i32 (i8*, ...) @__isoc99_scanf(i8* getelementptr inbounds ([6 x i8], [6 x i8]* @.str, i64 0, i64 0), i32* %1, i32* %2)
  store i32 0, i32* %3, align 4
  br label %9

9:                                                ; preds = %30, %0
  %10 = load i32, i32* %3, align 4
  %11 = load i32, i32* %1, align 4
  %12 = icmp slt i32 %10, %11
  br i1 %12, label %13, label %33

13:                                               ; preds = %9
  store i32 0, i32* %4, align 4
  br label %14

14:                                               ; preds = %26, %13
  %15 = load i32, i32* %4, align 4
  %16 = load i32, i32* %2, align 4
  %17 = icmp slt i32 %15, %16
  br i1 %17, label %18, label %29

18:                                               ; preds = %14
  %19 = load i32, i32* %3, align 4
  %20 = sext i32 %19 to i64
  %21 = getelementptr inbounds [100 x [100 x i32]], [100 x [100 x i32]]* %7, i64 0, i64 %20
  %22 = load i32, i32* %4, align 4
  %23 = sext i32 %22 to i64
  %24 = getelementptr inbounds [100 x i32], [100 x i32]* %21, i64 0, i64 %23
  %25 = call i32 (i8*, ...) @__isoc99_scanf(i8* getelementptr inbounds ([3 x i8], [3 x i8]* @.str.1, i64 0, i64 0), i32* %24)
  br label %26

26:                                               ; preds = %18
  %27 = load i32, i32* %4, align 4
  %28 = add nsw i32 %27, 1
  store i32 %28, i32* %4, align 4
  br label %14

29:                                               ; preds = %14
  br label %30

30:                                               ; preds = %29
  %31 = load i32, i32* %3, align 4
  %32 = add nsw i32 %31, 1
  store i32 %32, i32* %3, align 4
  br label %9

33:                                               ; preds = %9
  store i32 0, i32* %3, align 4
  br label %34

34:                                               ; preds = %46, %33
  %35 = load i32, i32* %3, align 4
  %36 = load i32, i32* %2, align 4
  %37 = icmp slt i32 %35, %36
  br i1 %37, label %38, label %49

38:                                               ; preds = %34
  %39 = getelementptr inbounds [100 x [100 x i32]], [100 x [100 x i32]]* %7, i64 0, i64 0
  %40 = load i32, i32* %3, align 4
  %41 = sext i32 %40 to i64
  %42 = getelementptr inbounds [100 x i32], [100 x i32]* %39, i64 0, i64 %41
  %43 = load i32, i32* %42, align 4
  %44 = load i32, i32* %6, align 4
  %45 = add nsw i32 %44, %43
  store i32 %45, i32* %6, align 4
  br label %46

46:                                               ; preds = %38
  %47 = load i32, i32* %3, align 4
  %48 = add nsw i32 %47, 1
  store i32 %48, i32* %3, align 4
  br label %34

49:                                               ; preds = %34
  store i32 1, i32* %4, align 4
  br label %50

50:                                               ; preds = %65, %49
  %51 = load i32, i32* %4, align 4
  %52 = load i32, i32* %1, align 4
  %53 = icmp slt i32 %51, %52
  br i1 %53, label %54, label %68

54:                                               ; preds = %50
  %55 = load i32, i32* %4, align 4
  %56 = sext i32 %55 to i64
  %57 = getelementptr inbounds [100 x [100 x i32]], [100 x [100 x i32]]* %7, i64 0, i64 %56
  %58 = load i32, i32* %2, align 4
  %59 = sub nsw i32 %58, 1
  %60 = sext i32 %59 to i64
  %61 = getelementptr inbounds [100 x i32], [100 x i32]* %57, i64 0, i64 %60
  %62 = load i32, i32* %61, align 4
  %63 = load i32, i32* %6, align 4
  %64 = add nsw i32 %63, %62
  store i32 %64, i32* %6, align 4
  br label %65

65:                                               ; preds = %54
  %66 = load i32, i32* %4, align 4
  %67 = add nsw i32 %66, 1
  store i32 %67, i32* %4, align 4
  br label %50

68:                                               ; preds = %50
  %69 = load i32, i32* %1, align 4
  %70 = icmp ne i32 %69, 1
  br i1 %70, label %71, label %92

71:                                               ; preds = %68
  %72 = load i32, i32* %2, align 4
  %73 = sub nsw i32 %72, 2
  store i32 %73, i32* %5, align 4
  br label %74

74:                                               ; preds = %88, %71
  %75 = load i32, i32* %5, align 4
  %76 = icmp sge i32 %75, 0
  br i1 %76, label %77, label %91

77:                                               ; preds = %74
  %78 = load i32, i32* %1, align 4
  %79 = sub nsw i32 %78, 1
  %80 = sext i32 %79 to i64
  %81 = getelementptr inbounds [100 x [100 x i32]], [100 x [100 x i32]]* %7, i64 0, i64 %80
  %82 = load i32, i32* %5, align 4
  %83 = sext i32 %82 to i64
  %84 = getelementptr inbounds [100 x i32], [100 x i32]* %81, i64 0, i64 %83
  %85 = load i32, i32* %84, align 4
  %86 = load i32, i32* %6, align 4
  %87 = add nsw i32 %86, %85
  store i32 %87, i32* %6, align 4
  br label %88

88:                                               ; preds = %77
  %89 = load i32, i32* %5, align 4
  %90 = add nsw i32 %89, -1
  store i32 %90, i32* %5, align 4
  br label %74

91:                                               ; preds = %74
  br label %92

92:                                               ; preds = %91, %68
  %93 = load i32, i32* %2, align 4
  %94 = icmp ne i32 %93, 1
  br i1 %94, label %95, label %113

95:                                               ; preds = %92
  %96 = load i32, i32* %1, align 4
  %97 = sub nsw i32 %96, 2
  store i32 %97, i32* %3, align 4
  br label %98

98:                                               ; preds = %109, %95
  %99 = load i32, i32* %3, align 4
  %100 = icmp sgt i32 %99, 0
  br i1 %100, label %101, label %112

101:                                              ; preds = %98
  %102 = load i32, i32* %3, align 4
  %103 = sext i32 %102 to i64
  %104 = getelementptr inbounds [100 x [100 x i32]], [100 x [100 x i32]]* %7, i64 0, i64 %103
  %105 = getelementptr inbounds [100 x i32], [100 x i32]* %104, i64 0, i64 0
  %106 = load i32, i32* %105, align 16
  %107 = load i32, i32* %6, align 4
  %108 = add nsw i32 %107, %106
  store i32 %108, i32* %6, align 4
  br label %109

109:                                              ; preds = %101
  %110 = load i32, i32* %3, align 4
  %111 = add nsw i32 %110, -1
  store i32 %111, i32* %3, align 4
  br label %98

112:                                              ; preds = %98
  br label %113

113:                                              ; preds = %112, %92
  %114 = load i32, i32* %6, align 4
  %115 = call i32 (i8*, ...) @printf(i8* getelementptr inbounds ([4 x i8], [4 x i8]* @.str.2, i64 0, i64 0), i32 %114)
  ret void
}

; Function Attrs: noinline nounwind uwtable
define dso_local i32 @main() #0 {
  %1 = alloca i32, align 4
  %2 = alloca i32, align 4
  %3 = alloca i32, align 4
  %4 = alloca i32, align 4
  store i32 0, i32* %1, align 4
  %5 = call i32 (i8*, ...) @__isoc99_scanf(i8* getelementptr inbounds ([3 x i8], [3 x i8]* @.str.1, i64 0, i64 0), i32* %2)
  store i32 0, i32* %3, align 4
  br label %6

6:                                                ; preds = %11, %0
  %7 = load i32, i32* %3, align 4
  %8 = load i32, i32* %2, align 4
  %9 = icmp slt i32 %7, %8
  br i1 %9, label %10, label %14

10:                                               ; preds = %6
  call void @mk()
  br label %11

11:                                               ; preds = %10
  %12 = load i32, i32* %3, align 4
  %13 = add nsw i32 %12, 1
  store i32 %13, i32* %3, align 4
  br label %6

14:                                               ; preds = %6
  ret i32 0
}